; Function Attrs: mustprogress uwtable
define noundef nonnull align 1 dereferenceable(4) ptr @_ZN14debug_module_t19selected_hart_stateEv(ptr noundef nonnull readonly align 8 captures(none) dereferenceable(1372) %0) local_unnamed_addr #3 align 2 {
  %2 = getelementptr inbounds nuw i8, ptr %0, i64 48
  %3 = load ptr, ptr %2, align 8, !tbaa !45
  %4 = load ptr, ptr %3, align 8, !tbaa !3
  %5 = getelementptr inbounds nuw i8, ptr %4, i64 48
  %6 = load ptr, ptr %5, align 8
  %7 = tail call noundef nonnull align 8 dereferenceable(144) ptr %6(ptr noundef nonnull align 8 dereferenceable(16) %3)
  %8 = getelementptr inbounds nuw i8, ptr %7, i64 104
  %9 = getelementptr inbounds nuw i8, ptr %0, i64 1180
  %10 = load i32, ptr %9, align 4, !tbaa !200
  %11 = zext i32 %10 to i64
  %12 = getelementptr inbounds nuw i8, ptr %7, i64 112
  %13 = load ptr, ptr %12, align 8, !tbaa !63
  %14 = load ptr, ptr %8, align 8, !tbaa !65
  %15 = ptrtoint ptr %13 to i64
  %16 = ptrtoint ptr %14 to i64
  %17 = sub i64 %15, %16
  %18 = ashr exact i64 %17, 3
  %.not.i.i.i = icmp ugt i64 %18, %11
  br i1 %.not.i.i.i, label %_ZNK14debug_module_t16selected_hart_idEv.exit, label %19

19:                                               ; preds = %1
  tail call void (ptr, ...) @_ZSt24__throw_out_of_range_fmtPKcz(ptr noundef nonnull @.str.2, i64 noundef %11, i64 noundef %18) #24
  unreachable

_ZNK14debug_module_t16selected_hart_idEv.exit:    ; preds = %1
  %20 = getelementptr inbounds nuw i8, ptr %0, i64 128
  %21 = getelementptr inbounds nuw i64, ptr %14, i64 %11
  %22 = load i64, ptr %21, align 8, !tbaa !47
  %23 = load ptr, ptr %20, align 8, !tbaa !49
  %24 = getelementptr inbounds nuw %struct.hart_debug_state_t, ptr %23, i64 %22
  ret ptr %24
}